target datalayout = "e-m:e-p270:32:32-p271:32:32-p272:64:64-i64:64-i128:128-f80:128-n8:16:32:64-S128"
target triple = "x86_64-pc-linux-gnu"

%struct.OutputFilter = type { ptr, ptr, ptr, i32, ptr, ptr, i32, i64, i64 }
%struct.OutputFilterOptions = type { ptr, ptr, i64, i64, i64, %struct.AVRational, ptr, ptr, i64, i32, i32, i32, i32, i32, i32, i32, %struct.AVRational, %struct.AVRational, i32, %struct.AVChannelLayout, ptr, ptr, ptr, ptr, ptr, ptr, ptr }
%struct.AVRational = type { i32, i32 }
%struct.AVChannelLayout = type { i32, i32, %union.anon, ptr }
%union.anon = type { i64 }
%struct.FilterGraphPriv = type { %struct.FilterGraph, [32 x i8], i32, i32, i32, i32, i32, ptr, i32, ptr, ptr, ptr, i32, %struct.AVBPrint }
%struct.FilterGraph = type { ptr, i32, ptr, i32, ptr, i32 }
%struct.AVBPrint = type { ptr, i32, i32, i32, [1 x i8], [1000 x i8] }
%struct.InputStream = type { ptr, ptr, i32, ptr, i32, ptr, ptr, ptr, %struct.AVRational, i32, i32, ptr, i32 }
%struct.AVCodecParameters = type { i32, i32, i32, ptr, i32, ptr, i32, i32, i64, i32, i32, i32, i32, i32, i32, %struct.AVRational, %struct.AVRational, i32, i32, i32, i32, i32, i32, i32, %struct.AVChannelLayout, i32, i32, i32, i32, i32, i32 }

@.str.11 = private unnamed_addr constant [6 x i8] c"%cf%s\00", align 1
@.str.12 = private unnamed_addr constant [193 x i8] c"Simple filtergraph '%s' was expected to have exactly 1 input and 1 output. However, it had %d input(s) and %d output(s). Please adjust, or use a complex filtergraph (-filter_complex) instead.\0A\00", align 1
@.str.13 = private unnamed_addr constant [68 x i8] c"Filtergraph has a %s output, cannot connect it to %s output stream\0A\00", align 1

; Function Attrs: inlinehint nounwind uwtable
define internal ptr @fgp_from_fg(ptr noundef %0) #2 {
  %2 = alloca ptr, align 8
  store ptr %0, ptr %2, align 8, !tbaa !20
  %3 = load ptr, ptr %2, align 8, !tbaa !20
  ret ptr %3
}

; Function Attrs: nounwind uwtable
define i32 @fg_create_simple(ptr noundef %0, ptr noundef %1, ptr noundef %2, ptr noundef %3, i32 noundef %4, ptr noundef %5) #0 {
  %7 = alloca i32, align 4
  %8 = alloca ptr, align 8
  %9 = alloca ptr, align 8
  %10 = alloca ptr, align 8
  %11 = alloca ptr, align 8
  %12 = alloca i32, align 4
  %13 = alloca ptr, align 8
  %14 = alloca i32, align 4
  %15 = alloca ptr, align 8
  %16 = alloca ptr, align 8
  %17 = alloca i32, align 4
  %18 = alloca i32, align 4
  store ptr %0, ptr %8, align 8, !tbaa !110
  store ptr %1, ptr %9, align 8, !tbaa !221
  store ptr %2, ptr %10, align 8, !tbaa !132
  store ptr %3, ptr %11, align 8, !tbaa !133
  store i32 %4, ptr %12, align 4, !tbaa !9
  store ptr %5, ptr %13, align 8, !tbaa !11
  call void @llvm.lifetime.start.p0(i64 4, ptr %14) #14
  %19 = load ptr, ptr %9, align 8, !tbaa !221
  %20 = getelementptr inbounds nuw %struct.InputStream, ptr %19, i32 0, i32 5
  %21 = load ptr, ptr %20, align 8, !tbaa !223
  %22 = getelementptr inbounds nuw %struct.AVCodecParameters, ptr %21, i32 0, i32 0
  %23 = load i32, ptr %22, align 8, !tbaa !229
  store i32 %23, ptr %14, align 4, !tbaa !9
  call void @llvm.lifetime.start.p0(i64 8, ptr %15) #14
  call void @llvm.lifetime.start.p0(i64 8, ptr %16) #14
  call void @llvm.lifetime.start.p0(i64 4, ptr %17) #14
  %24 = load ptr, ptr %8, align 8, !tbaa !110
  %25 = load ptr, ptr %10, align 8, !tbaa !132
  %26 = load ptr, ptr %11, align 8, !tbaa !133
  %27 = call i32 @fg_create(ptr noundef %24, ptr noundef %25, ptr noundef %26)
  store i32 %27, ptr %17, align 4, !tbaa !9
  %28 = load i32, ptr %17, align 4, !tbaa !9
  %29 = icmp slt i32 %28, 0
  br i1 %29, label %30, label %32

30:                                               ; preds = %6
  %31 = load i32, ptr %17, align 4, !tbaa !9
  store i32 %31, ptr %7, align 4
  store i32 1, ptr %18, align 4
  br label %132

32:                                               ; preds = %6
  %33 = load ptr, ptr %8, align 8, !tbaa !110
  %34 = load ptr, ptr %33, align 8, !tbaa !20
  store ptr %34, ptr %15, align 8, !tbaa !20
  %35 = load ptr, ptr %15, align 8, !tbaa !20
  %36 = call ptr @fgp_from_fg(ptr noundef %35)
  store ptr %36, ptr %16, align 8, !tbaa !21
  %37 = load ptr, ptr %16, align 8, !tbaa !21
  %38 = getelementptr inbounds nuw %struct.FilterGraphPriv, ptr %37, i32 0, i32 2
  store i32 1, ptr %38, align 8, !tbaa !58
  %39 = load ptr, ptr %16, align 8, !tbaa !21
  %40 = getelementptr inbounds nuw %struct.FilterGraphPriv, ptr %39, i32 0, i32 1
  %41 = getelementptr inbounds [32 x i8], ptr %40, i64 0, i64 0
  %42 = load i32, ptr %14, align 4, !tbaa !9
  %43 = call ptr @av_get_media_type_string(i32 noundef %42)
  %44 = getelementptr inbounds i8, ptr %43, i64 0
  %45 = load i8, ptr %44, align 1, !tbaa !195
  %46 = sext i8 %45 to i32
  %47 = load ptr, ptr %13, align 8, !tbaa !11
  %48 = getelementptr inbounds nuw %struct.OutputFilterOptions, ptr %47, i32 0, i32 0
  %49 = load ptr, ptr %48, align 8, !tbaa !54
  %50 = call i32 (ptr, i64, ptr, ...) @snprintf(ptr noundef %41, i64 noundef 32, ptr noundef @.str.11, i32 noundef %46, ptr noundef %49) #14
  %51 = load ptr, ptr %15, align 8, !tbaa !20
  %52 = getelementptr inbounds nuw %struct.FilterGraph, ptr %51, i32 0, i32 3
  %53 = load i32, ptr %52, align 8, !tbaa !112
  %54 = icmp ne i32 %53, 1
  br i1 %54, label %60, label %55

55:                                               ; preds = %32
  %56 = load ptr, ptr %15, align 8, !tbaa !20
  %57 = getelementptr inbounds nuw %struct.FilterGraph, ptr %56, i32 0, i32 5
  %58 = load i32, ptr %57, align 8, !tbaa !129
  %59 = icmp ne i32 %58, 1
  br i1 %59, label %60, label %69

60:                                               ; preds = %55, %32
  %61 = load ptr, ptr %15, align 8, !tbaa !20
  %62 = load ptr, ptr %10, align 8, !tbaa !132
  %63 = load ptr, ptr %15, align 8, !tbaa !20
  %64 = getelementptr inbounds nuw %struct.FilterGraph, ptr %63, i32 0, i32 3
  %65 = load i32, ptr %64, align 8, !tbaa !112
  %66 = load ptr, ptr %15, align 8, !tbaa !20
  %67 = getelementptr inbounds nuw %struct.FilterGraph, ptr %66, i32 0, i32 5
  %68 = load i32, ptr %67, align 8, !tbaa !129
  call void (ptr, i32, ptr, ...) @av_log(ptr noundef %61, i32 noundef 16, ptr noundef @.str.12, ptr noundef %62, i32 noundef %65, i32 noundef %68)
  store i32 -22, ptr %7, align 4
  store i32 1, ptr %18, align 4
  br label %132

69:                                               ; preds = %55
  %70 = load ptr, ptr %15, align 8, !tbaa !20
  %71 = getelementptr inbounds nuw %struct.FilterGraph, ptr %70, i32 0, i32 4
  %72 = load ptr, ptr %71, align 8, !tbaa !130
  %73 = getelementptr inbounds ptr, ptr %72, i64 0
  %74 = load ptr, ptr %73, align 8, !tbaa !4
  %75 = getelementptr inbounds nuw %struct.OutputFilter, ptr %74, i32 0, i32 6
  %76 = load i32, ptr %75, align 8, !tbaa !35
  %77 = load i32, ptr %14, align 4, !tbaa !9
  %78 = icmp ne i32 %76, %77
  br i1 %78, label %79, label %91

79:                                               ; preds = %69
  %80 = load ptr, ptr %15, align 8, !tbaa !20
  %81 = load ptr, ptr %15, align 8, !tbaa !20
  %82 = getelementptr inbounds nuw %struct.FilterGraph, ptr %81, i32 0, i32 4
  %83 = load ptr, ptr %82, align 8, !tbaa !130
  %84 = getelementptr inbounds ptr, ptr %83, i64 0
  %85 = load ptr, ptr %84, align 8, !tbaa !4
  %86 = getelementptr inbounds nuw %struct.OutputFilter, ptr %85, i32 0, i32 6
  %87 = load i32, ptr %86, align 8, !tbaa !35
  %88 = call ptr @av_get_media_type_string(i32 noundef %87)
  %89 = load i32, ptr %14, align 4, !tbaa !9
  %90 = call ptr @av_get_media_type_string(i32 noundef %89)
  call void (ptr, i32, ptr, ...) @av_log(ptr noundef %80, i32 noundef 16, ptr noundef @.str.13, ptr noundef %88, ptr noundef %90)
  store i32 -22, ptr %7, align 4
  store i32 1, ptr %18, align 4
  br label %132

91:                                               ; preds = %69
  %92 = load ptr, ptr %15, align 8, !tbaa !20
  %93 = getelementptr inbounds nuw %struct.FilterGraph, ptr %92, i32 0, i32 2
  %94 = load ptr, ptr %93, align 8, !tbaa !113
  %95 = getelementptr inbounds ptr, ptr %94, i64 0
  %96 = load ptr, ptr %95, align 8, !tbaa !114
  %97 = load ptr, ptr %9, align 8, !tbaa !221
  %98 = load ptr, ptr %13, align 8, !tbaa !11
  %99 = getelementptr inbounds nuw %struct.OutputFilterOptions, ptr %98, i32 0, i32 26
  %100 = load ptr, ptr %99, align 8, !tbaa !232
  %101 = call i32 @ifilter_bind_ist(ptr noundef %96, ptr noundef %97, ptr noundef %100)
  store i32 %101, ptr %17, align 4, !tbaa !9
  %102 = load i32, ptr %17, align 4, !tbaa !9
  %103 = icmp slt i32 %102, 0
  br i1 %103, label %104, label %106

104:                                              ; preds = %91
  %105 = load i32, ptr %17, align 4, !tbaa !9
  store i32 %105, ptr %7, align 4
  store i32 1, ptr %18, align 4
  br label %132

106:                                              ; preds = %91
  %107 = load ptr, ptr %15, align 8, !tbaa !20
  %108 = getelementptr inbounds nuw %struct.FilterGraph, ptr %107, i32 0, i32 4
  %109 = load ptr, ptr %108, align 8, !tbaa !130
  %110 = getelementptr inbounds ptr, ptr %109, i64 0
  %111 = load ptr, ptr %110, align 8, !tbaa !4
  %112 = load i32, ptr %12, align 4, !tbaa !9
  %113 = load ptr, ptr %13, align 8, !tbaa !11
  %114 = call i32 @ofilter_bind_enc(ptr noundef %111, i32 noundef %112, ptr noundef %113)
  store i32 %114, ptr %17, align 4, !tbaa !9
  %115 = load i32, ptr %17, align 4, !tbaa !9
  %116 = icmp slt i32 %115, 0
  br i1 %116, label %117, label %119

117:                                              ; preds = %106
  %118 = load i32, ptr %17, align 4, !tbaa !9
  store i32 %118, ptr %7, align 4
  store i32 1, ptr %18, align 4
  br label %132

119:                                              ; preds = %106
  %120 = load ptr, ptr %13, align 8, !tbaa !11
  %121 = getelementptr inbounds nuw %struct.OutputFilterOptions, ptr %120, i32 0, i32 8
  %122 = load i64, ptr %121, align 8, !tbaa !233
  %123 = icmp sge i64 %122, 0
  br i1 %123, label %124, label %131

124:                                              ; preds = %119
  %125 = load ptr, ptr %13, align 8, !tbaa !11
  %126 = getelementptr inbounds nuw %struct.OutputFilterOptions, ptr %125, i32 0, i32 8
  %127 = load i64, ptr %126, align 8, !tbaa !233
  %128 = trunc i64 %127 to i32
  %129 = load ptr, ptr %16, align 8, !tbaa !21
  %130 = getelementptr inbounds nuw %struct.FilterGraphPriv, ptr %129, i32 0, i32 8
  store i32 %128, ptr %130, align 8, !tbaa !137
  br label %131

131:                                              ; preds = %124, %119
  store i32 0, ptr %7, align 4
  store i32 1, ptr %18, align 4
  br label %132

132:                                              ; preds = %131, %117, %104, %79, %60, %30
  call void @llvm.lifetime.end.p0(i64 4, ptr %17) #14
  call void @llvm.lifetime.end.p0(i64 8, ptr %16) #14
  call void @llvm.lifetime.end.p0(i64 8, ptr %15) #14
  call void @llvm.lifetime.end.p0(i64 4, ptr %14) #14
  %133 = load i32, ptr %7, align 4
  ret i32 %133
}