; Function Attrs: nounwind uwtable
define range(i32 -2147483648, 1) i32 @fg_create_simple(ptr noundef captures(address_is_null) %0, ptr noundef %1, ptr noundef %2, ptr noundef %3, i32 noundef %4, ptr noundef %5) local_unnamed_addr #0 {
  %7 = getelementptr inbounds nuw i8, ptr %1, i64 40
  %8 = load ptr, ptr %7, align 8, !tbaa !262
  %9 = load i32, ptr %8, align 8, !tbaa !268
  %10 = tail call i32 @fg_create(ptr noundef %0, ptr noundef %2, ptr noundef %3)
  %11 = icmp slt i32 %10, 0
  br i1 %11, label %54, label %12

12:                                               ; preds = %6
  %13 = load ptr, ptr %0, align 8, !tbaa !94
  %14 = getelementptr inbounds nuw i8, ptr %13, i64 80
  store i32 1, ptr %14, align 8, !tbaa !47
  %15 = getelementptr inbounds nuw i8, ptr %13, i64 48
  %16 = tail call ptr @av_get_media_type_string(i32 noundef %9) #17
  %17 = load i8, ptr %16, align 1, !tbaa !166
  %18 = sext i8 %17 to i32
  %19 = load ptr, ptr %5, align 8, !tbaa !43
  %20 = tail call i32 (ptr, i64, ptr, ...) @snprintf(ptr noundef nonnull dereferenceable(1) %15, i64 noundef 32, ptr noundef nonnull @.str.11, i32 noundef %18, ptr noundef %19) #17
  %21 = getelementptr inbounds nuw i8, ptr %13, i64 24
  %22 = load i32, ptr %21, align 8, !tbaa !95
  %.not = icmp eq i32 %22, 1
  %23 = getelementptr inbounds nuw i8, ptr %13, i64 40
  %24 = load i32, ptr %23, align 8, !tbaa !96
  %.not42 = icmp eq i32 %24, 1
  %or.cond = select i1 %.not, i1 %.not42, i1 false
  br i1 %or.cond, label %25, label %._crit_edge

._crit_edge:                                      ; preds = %12
  tail call void (ptr, i32, ptr, ...) @av_log(ptr noundef nonnull %13, i32 noundef 16, ptr noundef nonnull @.str.12, ptr noundef %2, i32 noundef %22, i32 noundef %24) #17
  br label %54

25:                                               ; preds = %12
  %26 = getelementptr inbounds nuw i8, ptr %13, i64 32
  %27 = load ptr, ptr %26, align 8, !tbaa !111
  %28 = load ptr, ptr %27, align 8, !tbaa !112
  %29 = getelementptr inbounds nuw i8, ptr %28, i64 48
  %30 = load i32, ptr %29, align 8, !tbaa !25
  %.not43 = icmp eq i32 %30, %9
  br i1 %.not43, label %34, label %31

31:                                               ; preds = %25
  %32 = tail call ptr @av_get_media_type_string(i32 noundef %30) #17
  %33 = tail call ptr @av_get_media_type_string(i32 noundef %9) #17
  tail call void (ptr, i32, ptr, ...) @av_log(ptr noundef nonnull %13, i32 noundef 16, ptr noundef nonnull @.str.13, ptr noundef %32, ptr noundef %33) #17
  br label %54

34:                                               ; preds = %25
  %35 = getelementptr inbounds nuw i8, ptr %13, i64 16
  %36 = load ptr, ptr %35, align 8, !tbaa !97
  %37 = load ptr, ptr %36, align 8, !tbaa !98
  %38 = getelementptr inbounds nuw i8, ptr %5, i64 192
  %39 = load ptr, ptr %38, align 8, !tbaa !271
  %40 = tail call fastcc i32 @ifilter_bind_ist(ptr noundef %37, ptr noundef nonnull %1, ptr noundef %39)
  %41 = icmp slt i32 %40, 0
  br i1 %41, label %54, label %42

42:                                               ; preds = %34
  %43 = load ptr, ptr %26, align 8, !tbaa !111
  %44 = load ptr, ptr %43, align 8, !tbaa !112
  %45 = tail call i32 @ofilter_bind_enc(ptr noundef %44, i32 noundef %4, ptr noundef nonnull %5)
  %46 = icmp slt i32 %45, 0
  br i1 %46, label %54, label %47

47:                                               ; preds = %42
  %48 = getelementptr inbounds nuw i8, ptr %5, i64 64
  %49 = load i64, ptr %48, align 8, !tbaa !272
  %50 = icmp sgt i64 %49, -1
  br i1 %50, label %51, label %54

51:                                               ; preds = %47
  %52 = trunc i64 %49 to i32
  %53 = getelementptr inbounds nuw i8, ptr %13, i64 112
  store i32 %52, ptr %53, align 8, !tbaa !122
  br label %54

54:                                               ; preds = %47, %51, %42, %34, %6, %31, %._crit_edge
  %.0 = phi i32 [ -22, %._crit_edge ], [ -22, %31 ], [ %10, %6 ], [ %40, %34 ], [ %45, %42 ], [ 0, %51 ], [ 0, %47 ]
  ret i32 %.0
}